; Function Attrs: mustprogress nofree nounwind uwtable
define void @_Z10ps_fillarcP8t_psdatafffff(ptr noundef readonly captures(none) %0, float noundef %1, float noundef %2, float noundef %3, float noundef %4, float noundef %5) local_unnamed_addr #8 {
  %7 = load ptr, ptr %0, align 8, !tbaa !9
  %8 = fpext float %1 to double
  %9 = fpext float %2 to double
  %10 = fpext float %3 to double
  %11 = fpext float %4 to double
  %12 = fpext float %5 to double
  %13 = tail call i32 (ptr, ptr, ...) @fprintf(ptr noundef %7, ptr noundef nonnull @.str.42, double noundef %8, double noundef %9, double noundef %10, double noundef %11, double noundef %12) #18
  ret void
}